target datalayout = "e-m:e-p270:32:32-p271:32:32-p272:64:64-i64:64-i128:128-f80:128-n8:16:32:64-S128"
target triple = "x86_64-pc-linux-gnu"

%"struct.Luau::NotNull" = type { ptr }
%"struct.Luau::NotNull.0" = type { ptr }
%"struct.Luau::NotNull.1" = type { ptr }
%"struct.Luau::NotNull.2" = type { ptr }
%"struct.Luau::NotNull.3" = type { ptr }
%"struct.Luau::NotNull.4" = type { ptr }
%"struct.Luau::Symbol" = type { ptr, %"struct.Luau::AstName" }
%"struct.Luau::AstName" = type { ptr }
%"struct.Luau::ConstraintGenerator" = type { %"class.std::vector.6", %"class.std::shared_ptr", %"struct.Luau::NotNull.3", %"struct.Luau::NotNull.11", ptr, i32, [4 x i8], %"class.Luau::DenseHashMap", %"class.std::vector.12", %"class.std::vector.12", %"class.Luau::DenseHashMap.17", %"struct.Luau::NotNull.20", %"struct.Luau::RefinementArena", i32, %"class.std::vector.26", %"struct.Luau::NotNull", %"struct.Luau::NotNull.0", %"struct.Luau::NotNull.1", %"struct.Luau::NotNull.2", %"struct.Luau::NotNull.4", %"class.std::shared_ptr.31", %"class.std::function", %"class.std::vector", %"class.Luau::DenseHashMap.34", ptr, %"class.std::vector.37" }
%"class.std::vector.6" = type { %"struct.std::_Vector_base.7" }
%"struct.std::_Vector_base.7" = type { %"struct.std::_Vector_base<std::pair<Luau::Location, std::shared_ptr<Luau::Scope>>, std::allocator<std::pair<Luau::Location, std::shared_ptr<Luau::Scope>>>>::_Vector_impl" }
%"struct.std::_Vector_base<std::pair<Luau::Location, std::shared_ptr<Luau::Scope>>, std::allocator<std::pair<Luau::Location, std::shared_ptr<Luau::Scope>>>>::_Vector_impl" = type { %"struct.std::_Vector_base<std::pair<Luau::Location, std::shared_ptr<Luau::Scope>>, std::allocator<std::pair<Luau::Location, std::shared_ptr<Luau::Scope>>>>::_Vector_impl_data" }
%"struct.std::_Vector_base<std::pair<Luau::Location, std::shared_ptr<Luau::Scope>>, std::allocator<std::pair<Luau::Location, std::shared_ptr<Luau::Scope>>>>::_Vector_impl_data" = type { ptr, ptr, ptr }
%"class.std::shared_ptr" = type { %"class.std::__shared_ptr" }
%"class.std::__shared_ptr" = type { ptr, %"class.std::__shared_count" }
%"class.std::__shared_count" = type { ptr }
%"struct.Luau::NotNull.11" = type { ptr }
%"class.Luau::DenseHashMap" = type { %"class.Luau::detail::DenseHashTable" }
%"class.Luau::detail::DenseHashTable" = type <{ ptr, i64, i64, %"struct.Luau::Symbol", [8 x i8] }>
%"class.std::vector.12" = type { %"struct.std::_Vector_base.13" }
%"struct.std::_Vector_base.13" = type { %"struct.std::_Vector_base<std::unique_ptr<Luau::Constraint>, std::allocator<std::unique_ptr<Luau::Constraint>>>::_Vector_impl" }
%"struct.std::_Vector_base<std::unique_ptr<Luau::Constraint>, std::allocator<std::unique_ptr<Luau::Constraint>>>::_Vector_impl" = type { %"struct.std::_Vector_base<std::unique_ptr<Luau::Constraint>, std::allocator<std::unique_ptr<Luau::Constraint>>>::_Vector_impl_data" }
%"struct.std::_Vector_base<std::unique_ptr<Luau::Constraint>, std::allocator<std::unique_ptr<Luau::Constraint>>>::_Vector_impl_data" = type { ptr, ptr, ptr }
%"class.Luau::DenseHashMap.17" = type { %"class.Luau::detail::DenseHashTable.18" }
%"class.Luau::detail::DenseHashTable.18" = type <{ ptr, i64, i64, ptr, [8 x i8] }>
%"struct.Luau::NotNull.20" = type { ptr }
%"struct.Luau::RefinementArena" = type { %"class.Luau::TypedAllocator" }
%"class.Luau::TypedAllocator" = type { i8, %"class.std::vector.21", i64 }
%"class.std::vector.21" = type { %"struct.std::_Vector_base.22" }
%"struct.std::_Vector_base.22" = type { %"struct.std::_Vector_base<Luau::Variant<Luau::Variadic, Luau::Negation, Luau::Conjunction, Luau::Disjunction, Luau::Equivalence, Luau::Proposition> *, std::allocator<Luau::Variant<Luau::Variadic, Luau::Negation, Luau::Conjunction, Luau::Disjunction, Luau::Equivalence, Luau::Proposition> *>>::_Vector_impl" }
%"struct.std::_Vector_base<Luau::Variant<Luau::Variadic, Luau::Negation, Luau::Conjunction, Luau::Disjunction, Luau::Equivalence, Luau::Proposition> *, std::allocator<Luau::Variant<Luau::Variadic, Luau::Negation, Luau::Conjunction, Luau::Disjunction, Luau::Equivalence, Luau::Proposition> *>>::_Vector_impl" = type { %"struct.std::_Vector_base<Luau::Variant<Luau::Variadic, Luau::Negation, Luau::Conjunction, Luau::Disjunction, Luau::Equivalence, Luau::Proposition> *, std::allocator<Luau::Variant<Luau::Variadic, Luau::Negation, Luau::Conjunction, Luau::Disjunction, Luau::Equivalence, Luau::Proposition> *>>::_Vector_impl_data" }
%"struct.std::_Vector_base<Luau::Variant<Luau::Variadic, Luau::Negation, Luau::Conjunction, Luau::Disjunction, Luau::Equivalence, Luau::Proposition> *, std::allocator<Luau::Variant<Luau::Variadic, Luau::Negation, Luau::Conjunction, Luau::Disjunction, Luau::Equivalence, Luau::Proposition> *>>::_Vector_impl_data" = type { ptr, ptr, ptr }
%"class.std::vector.26" = type { %"struct.std::_Vector_base.27" }
%"struct.std::_Vector_base.27" = type { %"struct.std::_Vector_base<Luau::TypeError, std::allocator<Luau::TypeError>>::_Vector_impl" }
%"struct.std::_Vector_base<Luau::TypeError, std::allocator<Luau::TypeError>>::_Vector_impl" = type { %"struct.std::_Vector_base<Luau::TypeError, std::allocator<Luau::TypeError>>::_Vector_impl_data" }
%"struct.std::_Vector_base<Luau::TypeError, std::allocator<Luau::TypeError>>::_Vector_impl_data" = type { ptr, ptr, ptr }
%"class.std::shared_ptr.31" = type { %"class.std::__shared_ptr.32" }
%"class.std::__shared_ptr.32" = type { ptr, %"class.std::__shared_count" }
%"class.std::function" = type { %"class.std::_Function_base", ptr }
%"class.std::_Function_base" = type { %"union.std::_Any_data", ptr }
%"union.std::_Any_data" = type { %"union.std::_Nocopy_types" }
%"union.std::_Nocopy_types" = type { { i64, i64 } }
%"class.std::vector" = type { %"struct.std::_Vector_base" }
%"struct.std::_Vector_base" = type { %"struct.std::_Vector_base<Luau::RequireCycle, std::allocator<Luau::RequireCycle>>::_Vector_impl" }
%"struct.std::_Vector_base<Luau::RequireCycle, std::allocator<Luau::RequireCycle>>::_Vector_impl" = type { %"struct.std::_Vector_base<Luau::RequireCycle, std::allocator<Luau::RequireCycle>>::_Vector_impl_data" }
%"struct.std::_Vector_base<Luau::RequireCycle, std::allocator<Luau::RequireCycle>>::_Vector_impl_data" = type { ptr, ptr, ptr }
%"class.Luau::DenseHashMap.34" = type { %"class.Luau::detail::DenseHashTable.35" }
%"class.Luau::detail::DenseHashTable.35" = type <{ ptr, i64, i64, ptr, [8 x i8] }>
%"class.std::vector.37" = type { %"struct.std::_Vector_base.38" }
%"struct.std::_Vector_base.38" = type { %"struct.std::_Vector_base<std::vector<const Luau::Type *>, std::allocator<std::vector<const Luau::Type *>>>::_Vector_impl" }
%"struct.std::_Vector_base<std::vector<const Luau::Type *>, std::allocator<std::vector<const Luau::Type *>>>::_Vector_impl" = type { %"struct.std::_Vector_base<std::vector<const Luau::Type *>, std::allocator<std::vector<const Luau::Type *>>>::_Vector_impl_data" }
%"struct.std::_Vector_base<std::vector<const Luau::Type *>, std::allocator<std::vector<const Luau::Type *>>>::_Vector_impl_data" = type { ptr, ptr, ptr }
%"struct.Luau::Location" = type { %"struct.Luau::Position", %"struct.Luau::Position" }
%"struct.Luau::Position" = type { i32, i32 }
%"class.Luau::DenseHashSet.256" = type { %"class.Luau::detail::DenseHashTable.257" }
%"class.Luau::detail::DenseHashTable.257" = type <{ ptr, i64, i64, ptr, [8 x i8] }>
%"struct.Luau::SimplifyResult" = type { ptr, %"class.Luau::DenseHashSet.256" }

; Function Attrs: mustprogress nounwind uwtable
define linkonce_odr dso_local void @_ZN4Luau6detail16ItemInterfaceSetIPKNS_4TypeEE7destroyEPS4_m(ptr noundef %0, i64 noundef %1) #2 comdat align 2 {
  %3 = alloca ptr, align 8
  %4 = alloca i64, align 8
  %5 = alloca i64, align 8
  store ptr %0, ptr %3, align 8, !tbaa !193
  store i64 %1, ptr %4, align 8, !tbaa !173
  call void @llvm.lifetime.start.p0(i64 8, ptr %5) #22
  store i64 0, ptr %5, align 8, !tbaa !173
  br label %6

6:                                                ; preds = %12, %2
  %7 = load i64, ptr %5, align 8, !tbaa !173
  %8 = load i64, ptr %4, align 8, !tbaa !173
  %9 = icmp ult i64 %7, %8
  br i1 %9, label %11, label %10

10:                                               ; preds = %6
  call void @llvm.lifetime.end.p0(i64 8, ptr %5) #22
  br label %15

11:                                               ; preds = %6
  br label %12

12:                                               ; preds = %11
  %13 = load i64, ptr %5, align 8, !tbaa !173
  %14 = add i64 %13, 1
  store i64 %14, ptr %5, align 8, !tbaa !173
  br label %6, !llvm.loop !2579

15:                                               ; preds = %10
  ret void
}

; Function Attrs: noinline noreturn nounwind uwtable
define linkonce_odr hidden void @__clang_call_terminate(ptr noundef %0) #14 comdat {
  %2 = call ptr @__cxa_begin_catch(ptr %0) #22
  call void @_ZSt9terminatev() #23
  unreachable
}

; Function Attrs: mustprogress uwtable
define linkonce_odr dso_local void @_ZN4Luau6detail14DenseHashTableIPKNS_4TypeES4_S4_NS0_16ItemInterfaceSetIS4_EENS_16DenseHashPointerESt8equal_toIS4_EE7destroyEv(ptr noundef nonnull align 8 dereferenceable(34) %0) #3 comdat align 2 {
  %2 = alloca ptr, align 8
  store ptr %0, ptr %2, align 8, !tbaa !2575
  %3 = load ptr, ptr %2, align 8
  %4 = getelementptr inbounds nuw %"class.Luau::detail::DenseHashTable.257", ptr %3, i32 0, i32 0
  %5 = load ptr, ptr %4, align 8, !tbaa !2577
  %6 = getelementptr inbounds nuw %"class.Luau::detail::DenseHashTable.257", ptr %3, i32 0, i32 1
  %7 = load i64, ptr %6, align 8, !tbaa !2578
  call void @_ZN4Luau6detail16ItemInterfaceSetIPKNS_4TypeEE7destroyEPS4_m(ptr noundef %5, i64 noundef %7)
  %8 = getelementptr inbounds nuw %"class.Luau::detail::DenseHashTable.257", ptr %3, i32 0, i32 0
  %9 = load ptr, ptr %8, align 8, !tbaa !2577
  call void @_ZdlPv(ptr noundef %9) #22
  %10 = getelementptr inbounds nuw %"class.Luau::detail::DenseHashTable.257", ptr %3, i32 0, i32 0
  store ptr null, ptr %10, align 8, !tbaa !2577
  %11 = getelementptr inbounds nuw %"class.Luau::detail::DenseHashTable.257", ptr %3, i32 0, i32 1
  store i64 0, ptr %11, align 8, !tbaa !2578
  ret void
}

; Function Attrs: mustprogress nounwind uwtable
define linkonce_odr dso_local void @_ZN4Luau6detail14DenseHashTableIPKNS_4TypeES4_S4_NS0_16ItemInterfaceSetIS4_EENS_16DenseHashPointerESt8equal_toIS4_EED2Ev(ptr noundef nonnull align 8 dereferenceable(34) %0) unnamed_addr #2 comdat align 2 personality ptr @__gxx_personality_v0 {
  %2 = alloca ptr, align 8
  store ptr %0, ptr %2, align 8, !tbaa !2575
  %3 = load ptr, ptr %2, align 8
  %4 = getelementptr inbounds nuw %"class.Luau::detail::DenseHashTable.257", ptr %3, i32 0, i32 0
  %5 = load ptr, ptr %4, align 8, !tbaa !2577
  %6 = icmp ne ptr %5, null
  br i1 %6, label %7, label %9

7:                                                ; preds = %1
  invoke void @_ZN4Luau6detail14DenseHashTableIPKNS_4TypeES4_S4_NS0_16ItemInterfaceSetIS4_EENS_16DenseHashPointerESt8equal_toIS4_EE7destroyEv(ptr noundef nonnull align 8 dereferenceable(34) %3)
          to label %8 unwind label %10

8:                                                ; preds = %7
  br label %9

9:                                                ; preds = %8, %1
  ret void

10:                                               ; preds = %7
  %11 = landingpad { ptr, i32 }
          catch ptr null
  %12 = extractvalue { ptr, i32 } %11, 0
  call void @__clang_call_terminate(ptr %12) #23
  unreachable
}

; Function Attrs: inlinehint mustprogress nounwind uwtable
define linkonce_odr dso_local void @_ZN4Luau12DenseHashSetIPKNS_4TypeENS_16DenseHashPointerESt8equal_toIS3_EED2Ev(ptr noundef nonnull align 8 dereferenceable(40) %0) unnamed_addr #6 comdat align 2 {
  %2 = alloca ptr, align 8
  store ptr %0, ptr %2, align 8, !tbaa !1559
  %3 = load ptr, ptr %2, align 8
  %4 = getelementptr inbounds nuw %"class.Luau::DenseHashSet.256", ptr %3, i32 0, i32 0
  call void @_ZN4Luau6detail14DenseHashTableIPKNS_4TypeES4_S4_NS0_16ItemInterfaceSetIS4_EENS_16DenseHashPointerESt8equal_toIS4_EED2Ev(ptr noundef nonnull align 8 dereferenceable(34) %4) #22
  ret void
}

; Function Attrs: inlinehint mustprogress nounwind uwtable
define linkonce_odr dso_local void @_ZN4Luau14SimplifyResultD2Ev(ptr noundef nonnull align 8 dereferenceable(48) %0) unnamed_addr #6 comdat align 2 {
  %2 = alloca ptr, align 8
  store ptr %0, ptr %2, align 8, !tbaa !1582
  %3 = load ptr, ptr %2, align 8
  %4 = getelementptr inbounds nuw %"struct.Luau::SimplifyResult", ptr %3, i32 0, i32 1
  call void @_ZN4Luau12DenseHashSetIPKNS_4TypeENS_16DenseHashPointerESt8equal_toIS3_EED2Ev(ptr noundef nonnull align 8 dereferenceable(40) %4) #22
  ret void
}

; Function Attrs: mustprogress uwtable
define dso_local noundef ptr @_ZN4Luau19ConstraintGenerator13simplifyUnionERKSt10shared_ptrINS_5ScopeEENS_8LocationEPKNS_4TypeES9_(ptr noundef nonnull align 8 dereferenceable(472) %0, ptr noundef nonnull align 8 dereferenceable(16) %1, i64 %2, i64 %3, ptr noundef %4, ptr noundef %5) #3 align 2 {
  %7 = alloca %"struct.Luau::Location", align 4
  %8 = alloca ptr, align 8
  %9 = alloca ptr, align 8
  %10 = alloca ptr, align 8
  %11 = alloca ptr, align 8
  %12 = alloca %"struct.Luau::SimplifyResult", align 8
  %13 = alloca %"struct.Luau::NotNull.3", align 8
  %14 = alloca %"struct.Luau::NotNull.11", align 8
  %15 = getelementptr inbounds nuw { i64, i64 }, ptr %7, i32 0, i32 0
  store i64 %2, ptr %15, align 4
  %16 = getelementptr inbounds nuw { i64, i64 }, ptr %7, i32 0, i32 1
  store i64 %3, ptr %16, align 4
  store ptr %0, ptr %8, align 8, !tbaa !22
  store ptr %1, ptr %9, align 8, !tbaa !26
  store ptr %4, ptr %10, align 8, !tbaa !157
  store ptr %5, ptr %11, align 8, !tbaa !157
  %17 = load ptr, ptr %8, align 8
  call void @llvm.lifetime.start.p0(i64 48, ptr %12) #22
  %18 = getelementptr inbounds nuw %"struct.Luau::ConstraintGenerator", ptr %17, i32 0, i32 2
  call void @llvm.memcpy.p0.p0.i64(ptr align 8 %13, ptr align 8 %18, i64 8, i1 false), !tbaa.struct !34
  %19 = getelementptr inbounds nuw %"struct.Luau::ConstraintGenerator", ptr %17, i32 0, i32 3
  call void @llvm.memcpy.p0.p0.i64(ptr align 8 %14, ptr align 8 %19, i64 8, i1 false), !tbaa.struct !321
  %20 = load ptr, ptr %10, align 8, !tbaa !157
  %21 = load ptr, ptr %11, align 8, !tbaa !157
  %22 = getelementptr inbounds nuw %"struct.Luau::NotNull.3", ptr %13, i32 0, i32 0
  %23 = load ptr, ptr %22, align 8
  %24 = getelementptr inbounds nuw %"struct.Luau::NotNull.11", ptr %14, i32 0, i32 0
  %25 = load ptr, ptr %24, align 8
  call void @_ZN4Luau13simplifyUnionENS_7NotNullINS_12BuiltinTypesEEENS0_INS_9TypeArenaEEEPKNS_4TypeES7_(ptr dead_on_unwind writable sret(%"struct.Luau::SimplifyResult") align 8 %12, ptr %23, ptr %25, ptr noundef %20, ptr noundef %21)
  %26 = getelementptr inbounds nuw %"struct.Luau::SimplifyResult", ptr %12, i32 0, i32 0
  %27 = load ptr, ptr %26, align 8, !tbaa !382
  call void @_ZN4Luau14SimplifyResultD2Ev(ptr noundef nonnull align 8 dereferenceable(48) %12) #22
  call void @llvm.lifetime.end.p0(i64 48, ptr %12) #22
  ret ptr %27
}