; Function Attrs: mustprogress uwtable
define dso_local noundef ptr @_ZN4Luau19ConstraintGenerator13simplifyUnionERKSt10shared_ptrINS_5ScopeEENS_8LocationEPKNS_4TypeES9_(ptr noundef nonnull readonly align 8 captures(none) dereferenceable(472) %0, ptr noundef nonnull readnone align 8 captures(none) dereferenceable(16) %1, i64 %2, i64 %3, ptr noundef %4, ptr noundef %5) local_unnamed_addr #5 align 2 personality ptr @__gxx_personality_v0 {
  %7 = alloca %"struct.Luau::SimplifyResult", align 8
  call void @llvm.lifetime.start.p0(i64 48, ptr nonnull %7) #28
  %8 = getelementptr inbounds nuw i8, ptr %0, i64 40
  %.sroa.01.0.copyload = load ptr, ptr %8, align 8, !tbaa !16
  %9 = getelementptr inbounds nuw i8, ptr %0, i64 48
  %.sroa.0.0.copyload = load ptr, ptr %9, align 8, !tbaa !223
  call void @_ZN4Luau13simplifyUnionENS_7NotNullINS_12BuiltinTypesEEENS0_INS_9TypeArenaEEEPKNS_4TypeES7_(ptr dead_on_unwind nonnull writable sret(%"struct.Luau::SimplifyResult") align 8 %7, ptr %.sroa.01.0.copyload, ptr %.sroa.0.0.copyload, ptr noundef %4, ptr noundef %5)
  %10 = load ptr, ptr %7, align 8, !tbaa !272
  %11 = getelementptr inbounds nuw i8, ptr %7, i64 8
  %12 = load ptr, ptr %11, align 8, !tbaa !276
  %.not.i.i.i = icmp eq ptr %12, null
  br i1 %.not.i.i.i, label %_ZN4Luau14SimplifyResultD2Ev.exit, label %13

13:                                               ; preds = %6
  call void @_ZdlPv(ptr noundef nonnull %12) #28
  br label %_ZN4Luau14SimplifyResultD2Ev.exit

_ZN4Luau14SimplifyResultD2Ev.exit:                ; preds = %6, %13
  call void @llvm.lifetime.end.p0(i64 48, ptr nonnull %7) #28
  ret ptr %10
}